; Function Attrs: inlinehint nounwind uwtable
define internal fastcc noundef ptr @pmix_bfrop_tma_kval_new(ptr noundef readonly captures(none) %0) unnamed_addr #6 {
  %2 = load i64, ptr getelementptr inbounds nuw (i8, ptr @pmix_kval_t_class, i64 56), align 8, !tbaa !110
  %3 = tail call noalias noundef ptr @malloc(i64 noundef %2) #16
  %4 = load i32, ptr @pmix_class_init_epoch, align 4, !tbaa !35
  %5 = load i32, ptr getelementptr inbounds nuw (i8, ptr @pmix_kval_t_class, i64 32), align 8, !tbaa !36
  %.not.i = icmp eq i32 %4, %5
  br i1 %.not.i, label %7, label %6

6:                                                ; preds = %1
  tail call void @pmix_class_initialize(ptr noundef nonnull @pmix_kval_t_class) #15
  br label %7

7:                                                ; preds = %6, %1
  %.not22.i = icmp eq ptr %3, null
  br i1 %.not22.i, label %pmix_obj_new_tma.exit, label %8

8:                                                ; preds = %7
  %9 = tail call i32 @pthread_mutex_init(ptr noundef nonnull %3, ptr noundef null) #15
  %10 = getelementptr inbounds nuw i8, ptr %3, i64 40
  store ptr @pmix_kval_t_class, ptr %10, align 8, !tbaa !38
  %11 = getelementptr inbounds nuw i8, ptr %3, i64 48
  store i32 1, ptr %11, align 8, !tbaa !39
  %12 = getelementptr inbounds nuw i8, ptr %3, i64 56
  %13 = getelementptr inbounds nuw i8, ptr %3, i64 96
  tail call void @llvm.memset.p0.i64(ptr noundef nonnull align 8 dereferenceable(32) %12, i8 0, i64 32, i1 false)
  tail call void @llvm.memset.p0.i64(ptr noundef nonnull align 8 dereferenceable(24) %13, i8 0, i64 24, i1 false)
  %14 = load ptr, ptr getelementptr inbounds nuw (i8, ptr @pmix_kval_t_class, i64 40), align 8, !tbaa !40
  %15 = load ptr, ptr %14, align 8, !tbaa !41
  %.not6.i.i = icmp eq ptr %15, null
  br i1 %.not6.i.i, label %.loopexit, label %.lr.ph.i.i

.lr.ph.i.i:                                       ; preds = %8, %.lr.ph.i.i
  %16 = phi ptr [ %18, %.lr.ph.i.i ], [ %15, %8 ]
  %.07.i.i = phi ptr [ %17, %.lr.ph.i.i ], [ %14, %8 ]
  tail call void %16(ptr noundef nonnull %3) #15
  %17 = getelementptr inbounds nuw i8, ptr %.07.i.i, i64 8
  %18 = load ptr, ptr %17, align 8, !tbaa !41
  %.not.i.i = icmp eq ptr %18, null
  br i1 %.not.i.i, label %.loopexit, label %.lr.ph.i.i, !llvm.loop !42

.loopexit:                                        ; preds = %.lr.ph.i.i, %8
  %19 = tail call noalias ptr @strdup(ptr noundef readonly %0) #15
  %20 = getelementptr inbounds nuw i8, ptr %3, i64 144
  store ptr %19, ptr %20, align 8, !tbaa !123
  %21 = tail call noalias noundef dereferenceable_or_null(32) ptr @malloc(i64 noundef 32) #16
  %22 = getelementptr inbounds nuw i8, ptr %3, i64 152
  store ptr %21, ptr %22, align 8, !tbaa !93
  %23 = icmp eq ptr %21, null
  br i1 %23, label %24, label %pmix_obj_new_tma.exit, !prof !124

24:                                               ; preds = %.loopexit
  %25 = tail call i32 @pthread_mutex_lock(ptr noundef nonnull %3) #15
  %26 = icmp eq i32 %25, 35
  br i1 %26, label %27, label %pmix_obj_update.exit

27:                                               ; preds = %24
  %28 = tail call ptr @__errno_location() #18
  store i32 35, ptr %28, align 4, !tbaa !35
  tail call void @perror(ptr noundef nonnull @.str.19) #19
  tail call void @abort() #20
  unreachable

pmix_obj_update.exit:                             ; preds = %24
  %29 = load i32, ptr %11, align 8, !tbaa !39
  %30 = add nsw i32 %29, -1
  store i32 %30, ptr %11, align 8, !tbaa !39
  %31 = tail call i32 @pthread_mutex_unlock(ptr noundef nonnull %3) #15
  %32 = icmp eq i32 %30, 0
  br i1 %32, label %33, label %pmix_obj_new_tma.exit

33:                                               ; preds = %pmix_obj_update.exit
  %34 = load ptr, ptr %10, align 8, !tbaa !38
  %35 = getelementptr inbounds nuw i8, ptr %34, i64 48
  %36 = load ptr, ptr %35, align 8, !tbaa !47
  %37 = load ptr, ptr %36, align 8, !tbaa !41
  %.not6.i = icmp eq ptr %37, null
  br i1 %.not6.i, label %pmix_obj_run_destructors.exit, label %.lr.ph.i

.lr.ph.i:                                         ; preds = %33, %.lr.ph.i
  %38 = phi ptr [ %40, %.lr.ph.i ], [ %37, %33 ]
  %.07.i = phi ptr [ %39, %.lr.ph.i ], [ %36, %33 ]
  tail call void %38(ptr noundef nonnull %3) #15
  %39 = getelementptr inbounds nuw i8, ptr %.07.i, i64 8
  %40 = load ptr, ptr %39, align 8, !tbaa !41
  %.not.i18 = icmp eq ptr %40, null
  br i1 %.not.i18, label %pmix_obj_run_destructors.exit, label %.lr.ph.i, !llvm.loop !48

pmix_obj_run_destructors.exit:                    ; preds = %.lr.ph.i, %33
  %41 = load ptr, ptr %13, align 8, !tbaa !91
  %.not17 = icmp eq ptr %41, null
  br i1 %.not17, label %43, label %42

42:                                               ; preds = %pmix_obj_run_destructors.exit
  tail call void %41(ptr noundef nonnull %12, ptr noundef nonnull %3) #15
  br label %pmix_obj_new_tma.exit

43:                                               ; preds = %pmix_obj_run_destructors.exit
  tail call void @free(ptr noundef nonnull %3) #15
  br label %pmix_obj_new_tma.exit

pmix_obj_new_tma.exit:                            ; preds = %7, %pmix_obj_update.exit, %43, %42, %.loopexit
  %.0 = phi ptr [ %3, %.loopexit ], [ null, %42 ], [ null, %43 ], [ null, %pmix_obj_update.exit ], [ null, %7 ]
  ret ptr %.0
}